target datalayout = "e-m:e-p270:32:32-p271:32:32-p272:64:64-i64:64-i128:128-f80:128-n8:16:32:64-S128"
target triple = "x86_64-pc-linux-gnu"

%struct._object = type { %union.anon, ptr }
%union.anon = type { i64 }
%struct.anon = type { i32, i32 }
%struct.typevarobject = type { %struct._object, ptr, ptr, ptr, ptr, ptr, ptr, ptr, i8, i8, i8 }

@_Py_NoDefaultStruct = hidden global { { %struct.anon }, ptr } { { %struct.anon } { %struct.anon { i32 -1073741824, i32 128 } }, ptr @_PyNoDefault_Type }, align 8
@PyExc_TypeError = external global ptr, align 8
@.str.28 = private unnamed_addr constant [25 x i8] c"__typing_prepare_subst__\00", align 1
@.str.33 = private unnamed_addr constant [15 x i8] c"__parameters__\00", align 1
@.str.34 = private unnamed_addr constant [58 x i8] c"Too few arguments for %S; actual %d, expected at least %d\00", align 1

; Function Attrs: inlinehint nounwind uwtable
define internal void @Py_XINCREF(ptr noundef %0) #3 {
  %2 = alloca ptr, align 8
  store ptr %0, ptr %2, align 8, !tbaa !4
  %3 = load ptr, ptr %2, align 8, !tbaa !4
  %4 = icmp ne ptr %3, null
  br i1 %4, label %5, label %7

5:                                                ; preds = %1
  %6 = load ptr, ptr %2, align 8, !tbaa !4
  call void @Py_INCREF(ptr noundef %6)
  br label %7

7:                                                ; preds = %5, %1
  ret void
}

; Function Attrs: inlinehint nounwind uwtable
define internal ptr @_Py_XNewRef(ptr noundef %0) #3 {
  %2 = alloca ptr, align 8
  store ptr %0, ptr %2, align 8, !tbaa !4
  %3 = load ptr, ptr %2, align 8, !tbaa !4
  call void @Py_XINCREF(ptr noundef %3)
  %4 = load ptr, ptr %2, align 8, !tbaa !4
  ret ptr %4
}

; Function Attrs: alwaysinline nounwind uwtable
define internal void @Py_INCREF(ptr noundef %0) #4 {
  %2 = alloca ptr, align 8
  %3 = alloca i32, align 4
  %4 = alloca i32, align 4
  store ptr %0, ptr %2, align 8, !tbaa !4
  call void @llvm.lifetime.start.p0(i64 4, ptr %3) #6
  %5 = load ptr, ptr %2, align 8, !tbaa !4
  %6 = getelementptr inbounds nuw %struct._object, ptr %5, i32 0, i32 0
  %7 = getelementptr inbounds nuw %struct.anon, ptr %6, i32 0, i32 0
  %8 = load i32, ptr %7, align 8, !tbaa !27
  store i32 %8, ptr %3, align 4, !tbaa !13
  %9 = load i32, ptr %3, align 4, !tbaa !13
  %10 = icmp slt i32 %9, 0
  br i1 %10, label %11, label %12

11:                                               ; preds = %1
  store i32 1, ptr %4, align 4
  br label %18

12:                                               ; preds = %1
  %13 = load i32, ptr %3, align 4, !tbaa !13
  %14 = add i32 %13, 1
  %15 = load ptr, ptr %2, align 8, !tbaa !4
  %16 = getelementptr inbounds nuw %struct._object, ptr %15, i32 0, i32 0
  %17 = getelementptr inbounds nuw %struct.anon, ptr %16, i32 0, i32 0
  store i32 %14, ptr %17, align 8, !tbaa !27
  store i32 0, ptr %4, align 4
  br label %18

18:                                               ; preds = %12, %11
  call void @llvm.lifetime.end.p0(i64 4, ptr %3) #6
  %19 = load i32, ptr %4, align 4
  switch i32 %19, label %21 [
    i32 0, label %20
    i32 1, label %20
  ]

20:                                               ; preds = %18, %18
  ret void

21:                                               ; preds = %18
  unreachable
}

; Function Attrs: alwaysinline nounwind uwtable
define internal i32 @_Py_IsImmortal(ptr noundef %0) #4 {
  %2 = alloca ptr, align 8
  store ptr %0, ptr %2, align 8, !tbaa !4
  %3 = load ptr, ptr %2, align 8, !tbaa !4
  %4 = getelementptr inbounds nuw %struct._object, ptr %3, i32 0, i32 0
  %5 = getelementptr inbounds nuw %struct.anon, ptr %4, i32 0, i32 0
  %6 = load i32, ptr %5, align 8, !tbaa !27
  %7 = icmp slt i32 %6, 0
  %8 = zext i1 %7 to i32
  ret i32 %8
}

; Function Attrs: nounwind uwtable
define internal ptr @typevar_default(ptr noundef %0, ptr noundef %1) #0 {
  %3 = alloca ptr, align 8
  %4 = alloca ptr, align 8
  %5 = alloca ptr, align 8
  %6 = alloca ptr, align 8
  store ptr %0, ptr %4, align 8, !tbaa !30
  store ptr %1, ptr %5, align 8, !tbaa !30
  %7 = load ptr, ptr %4, align 8, !tbaa !30
  %8 = getelementptr inbounds nuw %struct.typevarobject, ptr %7, i32 0, i32 6
  %9 = load ptr, ptr %8, align 8, !tbaa !120
  %10 = icmp ne ptr %9, null
  br i1 %10, label %11, label %16

11:                                               ; preds = %2
  %12 = load ptr, ptr %4, align 8, !tbaa !30
  %13 = getelementptr inbounds nuw %struct.typevarobject, ptr %12, i32 0, i32 6
  %14 = load ptr, ptr %13, align 8, !tbaa !120
  %15 = call ptr @_Py_NewRef(ptr noundef %14)
  store ptr %15, ptr %3, align 8
  br label %32

16:                                               ; preds = %2
  %17 = load ptr, ptr %4, align 8, !tbaa !30
  %18 = getelementptr inbounds nuw %struct.typevarobject, ptr %17, i32 0, i32 7
  %19 = load ptr, ptr %18, align 8, !tbaa !121
  %20 = icmp eq ptr %19, null
  br i1 %20, label %21, label %22

21:                                               ; preds = %16
  store ptr @_Py_NoDefaultStruct, ptr %3, align 8
  br label %32

22:                                               ; preds = %16
  call void @llvm.lifetime.start.p0(i64 8, ptr %6) #6
  %23 = load ptr, ptr %4, align 8, !tbaa !30
  %24 = getelementptr inbounds nuw %struct.typevarobject, ptr %23, i32 0, i32 7
  %25 = load ptr, ptr %24, align 8, !tbaa !121
  %26 = call ptr @PyObject_CallNoArgs(ptr noundef %25)
  store ptr %26, ptr %6, align 8, !tbaa !4
  %27 = load ptr, ptr %6, align 8, !tbaa !4
  %28 = call ptr @_Py_XNewRef(ptr noundef %27)
  %29 = load ptr, ptr %4, align 8, !tbaa !30
  %30 = getelementptr inbounds nuw %struct.typevarobject, ptr %29, i32 0, i32 6
  store ptr %28, ptr %30, align 8, !tbaa !120
  %31 = load ptr, ptr %6, align 8, !tbaa !4
  store ptr %31, ptr %3, align 8
  call void @llvm.lifetime.end.p0(i64 8, ptr %6) #6
  br label %32

32:                                               ; preds = %22, %21, %11
  %33 = load ptr, ptr %3, align 8
  ret ptr %33
}

; Function Attrs: inlinehint nounwind uwtable
define internal ptr @_Py_NewRef(ptr noundef %0) #3 {
  %2 = alloca ptr, align 8
  store ptr %0, ptr %2, align 8, !tbaa !4
  %3 = load ptr, ptr %2, align 8, !tbaa !4
  call void @Py_INCREF(ptr noundef %3)
  %4 = load ptr, ptr %2, align 8, !tbaa !4
  ret ptr %4
}

; Function Attrs: alwaysinline nounwind uwtable
define internal void @Py_DECREF(ptr noundef %0) #4 {
  %2 = alloca ptr, align 8
  store ptr %0, ptr %2, align 8, !tbaa !4
  %3 = load ptr, ptr %2, align 8, !tbaa !4
  %4 = call i32 @_Py_IsImmortal(ptr noundef %3)
  %5 = icmp ne i32 %4, 0
  br i1 %5, label %6, label %7

6:                                                ; preds = %1
  br label %16

7:                                                ; preds = %1
  %8 = load ptr, ptr %2, align 8, !tbaa !4
  %9 = getelementptr inbounds nuw %struct._object, ptr %8, i32 0, i32 0
  %10 = getelementptr inbounds nuw %struct.anon, ptr %9, i32 0, i32 0
  %11 = load i32, ptr %10, align 8, !tbaa !27
  %12 = add i32 %11, -1
  store i32 %12, ptr %10, align 8, !tbaa !27
  %13 = icmp eq i32 %12, 0
  br i1 %13, label %14, label %16

14:                                               ; preds = %7
  %15 = load ptr, ptr %2, align 8, !tbaa !4
  call void @_Py_Dealloc(ptr noundef %15)
  br label %16

16:                                               ; preds = %6, %14, %7
  ret void
}

; Function Attrs: nounwind uwtable
define internal ptr @typevar_typing_prepare_subst_impl(ptr noundef %0, ptr noundef %1, ptr noundef %2) #0 {
  %4 = alloca ptr, align 8
  %5 = alloca ptr, align 8
  %6 = alloca ptr, align 8
  %7 = alloca ptr, align 8
  %8 = alloca ptr, align 8
  %9 = alloca i32, align 4
  %10 = alloca i64, align 8
  %11 = alloca i64, align 8
  %12 = alloca ptr, align 8
  %13 = alloca ptr, align 8
  %14 = alloca ptr, align 8
  store ptr %0, ptr %5, align 8, !tbaa !30
  store ptr %1, ptr %6, align 8, !tbaa !4
  store ptr %2, ptr %7, align 8, !tbaa !4
  call void @llvm.lifetime.start.p0(i64 8, ptr %8) #6
  %15 = load ptr, ptr %6, align 8, !tbaa !4
  %16 = call ptr @PyObject_GetAttrString(ptr noundef %15, ptr noundef @.str.33)
  store ptr %16, ptr %8, align 8, !tbaa !4
  %17 = load ptr, ptr %8, align 8, !tbaa !4
  %18 = icmp eq ptr %17, null
  br i1 %18, label %19, label %20

19:                                               ; preds = %3
  store ptr null, ptr %4, align 8
  store i32 1, ptr %9, align 4
  br label %88

20:                                               ; preds = %3
  call void @llvm.lifetime.start.p0(i64 8, ptr %10) #6
  %21 = load ptr, ptr %8, align 8, !tbaa !4
  %22 = load ptr, ptr %5, align 8, !tbaa !30
  %23 = call i64 @PySequence_Index(ptr noundef %21, ptr noundef %22)
  store i64 %23, ptr %10, align 8, !tbaa !15
  %24 = load i64, ptr %10, align 8, !tbaa !15
  %25 = icmp eq i64 %24, -1
  br i1 %25, label %26, label %28

26:                                               ; preds = %20
  %27 = load ptr, ptr %8, align 8, !tbaa !4
  call void @Py_DECREF(ptr noundef %27)
  store ptr null, ptr %4, align 8
  store i32 1, ptr %9, align 4
  br label %87

28:                                               ; preds = %20
  call void @llvm.lifetime.start.p0(i64 8, ptr %11) #6
  %29 = load ptr, ptr %7, align 8, !tbaa !4
  %30 = call i64 @PySequence_Size(ptr noundef %29)
  store i64 %30, ptr %11, align 8, !tbaa !15
  %31 = load i64, ptr %11, align 8, !tbaa !15
  %32 = icmp eq i64 %31, -1
  br i1 %32, label %33, label %35

33:                                               ; preds = %28
  %34 = load ptr, ptr %8, align 8, !tbaa !4
  call void @Py_DECREF(ptr noundef %34)
  store ptr null, ptr %4, align 8
  store i32 1, ptr %9, align 4
  br label %86

35:                                               ; preds = %28
  %36 = load i64, ptr %10, align 8, !tbaa !15
  %37 = load i64, ptr %11, align 8, !tbaa !15
  %38 = icmp slt i64 %36, %37
  br i1 %38, label %39, label %43

39:                                               ; preds = %35
  %40 = load ptr, ptr %8, align 8, !tbaa !4
  call void @Py_DECREF(ptr noundef %40)
  %41 = load ptr, ptr %7, align 8, !tbaa !4
  %42 = call ptr @_Py_NewRef(ptr noundef %41)
  store ptr %42, ptr %4, align 8
  store i32 1, ptr %9, align 4
  br label %86

43:                                               ; preds = %35
  %44 = load i64, ptr %10, align 8, !tbaa !15
  %45 = load i64, ptr %11, align 8, !tbaa !15
  %46 = icmp eq i64 %44, %45
  br i1 %46, label %47, label %77

47:                                               ; preds = %43
  call void @llvm.lifetime.start.p0(i64 8, ptr %12) #6
  %48 = load ptr, ptr %5, align 8, !tbaa !30
  %49 = call ptr @typevar_default(ptr noundef %48, ptr noundef null)
  store ptr %49, ptr %12, align 8, !tbaa !4
  %50 = load ptr, ptr %12, align 8, !tbaa !4
  %51 = icmp eq ptr %50, null
  br i1 %51, label %52, label %54

52:                                               ; preds = %47
  %53 = load ptr, ptr %8, align 8, !tbaa !4
  call void @Py_DECREF(ptr noundef %53)
  store ptr null, ptr %4, align 8
  store i32 1, ptr %9, align 4
  br label %74

54:                                               ; preds = %47
  %55 = load ptr, ptr %12, align 8, !tbaa !4
  %56 = icmp ne ptr %55, @_Py_NoDefaultStruct
  br i1 %56, label %57, label %73

57:                                               ; preds = %54
  call void @llvm.lifetime.start.p0(i64 8, ptr %13) #6
  %58 = load ptr, ptr %12, align 8, !tbaa !4
  %59 = call ptr (i64, ...) @PyTuple_Pack(i64 noundef 1, ptr noundef %58)
  store ptr %59, ptr %13, align 8, !tbaa !4
  %60 = load ptr, ptr %12, align 8, !tbaa !4
  call void @Py_DECREF(ptr noundef %60)
  %61 = load ptr, ptr %13, align 8, !tbaa !4
  %62 = icmp eq ptr %61, null
  br i1 %62, label %63, label %65

63:                                               ; preds = %57
  %64 = load ptr, ptr %8, align 8, !tbaa !4
  call void @Py_DECREF(ptr noundef %64)
  store ptr null, ptr %4, align 8
  store i32 1, ptr %9, align 4
  br label %72

65:                                               ; preds = %57
  call void @llvm.lifetime.start.p0(i64 8, ptr %14) #6
  %66 = load ptr, ptr %7, align 8, !tbaa !4
  %67 = load ptr, ptr %13, align 8, !tbaa !4
  %68 = call ptr @PySequence_Concat(ptr noundef %66, ptr noundef %67)
  store ptr %68, ptr %14, align 8, !tbaa !4
  %69 = load ptr, ptr %8, align 8, !tbaa !4
  call void @Py_DECREF(ptr noundef %69)
  %70 = load ptr, ptr %13, align 8, !tbaa !4
  call void @Py_DECREF(ptr noundef %70)
  %71 = load ptr, ptr %14, align 8, !tbaa !4
  store ptr %71, ptr %4, align 8
  store i32 1, ptr %9, align 4
  call void @llvm.lifetime.end.p0(i64 8, ptr %14) #6
  br label %72

72:                                               ; preds = %65, %63
  call void @llvm.lifetime.end.p0(i64 8, ptr %13) #6
  br label %74

73:                                               ; preds = %54
  store i32 0, ptr %9, align 4
  br label %74

74:                                               ; preds = %73, %72, %52
  call void @llvm.lifetime.end.p0(i64 8, ptr %12) #6
  %75 = load i32, ptr %9, align 4
  switch i32 %75, label %86 [
    i32 0, label %76
  ]

76:                                               ; preds = %74
  br label %77

77:                                               ; preds = %76, %43
  br label %78

78:                                               ; preds = %77
  %79 = load ptr, ptr %8, align 8, !tbaa !4
  call void @Py_DECREF(ptr noundef %79)
  %80 = load ptr, ptr @PyExc_TypeError, align 8, !tbaa !4
  %81 = load ptr, ptr %6, align 8, !tbaa !4
  %82 = load i64, ptr %11, align 8, !tbaa !15
  %83 = load i64, ptr %10, align 8, !tbaa !15
  %84 = add i64 %83, 1
  %85 = call ptr (ptr, ptr, ...) @PyErr_Format(ptr noundef %80, ptr noundef @.str.34, ptr noundef %81, i64 noundef %82, i64 noundef %84)
  store ptr null, ptr %4, align 8
  store i32 1, ptr %9, align 4
  br label %86

86:                                               ; preds = %78, %74, %39, %33
  call void @llvm.lifetime.end.p0(i64 8, ptr %11) #6
  br label %87

87:                                               ; preds = %86, %26
  call void @llvm.lifetime.end.p0(i64 8, ptr %10) #6
  br label %88

88:                                               ; preds = %87, %19
  call void @llvm.lifetime.end.p0(i64 8, ptr %8) #6
  %89 = load ptr, ptr %4, align 8
  ret ptr %89
}

; Function Attrs: nounwind uwtable
define internal ptr @typevar_typing_prepare_subst(ptr noundef %0, ptr noundef %1, i64 noundef %2) #0 {
  %4 = alloca ptr, align 8
  %5 = alloca ptr, align 8
  %6 = alloca i64, align 8
  %7 = alloca ptr, align 8
  %8 = alloca ptr, align 8
  %9 = alloca ptr, align 8
  store ptr %0, ptr %4, align 8, !tbaa !4
  store ptr %1, ptr %5, align 8, !tbaa !28
  store i64 %2, ptr %6, align 8, !tbaa !15
  call void @llvm.lifetime.start.p0(i64 8, ptr %7) #6
  store ptr null, ptr %7, align 8, !tbaa !4
  call void @llvm.lifetime.start.p0(i64 8, ptr %8) #6
  call void @llvm.lifetime.start.p0(i64 8, ptr %9) #6
  %10 = load i64, ptr %6, align 8, !tbaa !15
  %11 = icmp sle i64 2, %10
  br i1 %11, label %12, label %15

12:                                               ; preds = %3
  %13 = load i64, ptr %6, align 8, !tbaa !15
  %14 = icmp sle i64 %13, 2
  br i1 %14, label %20, label %15

15:                                               ; preds = %12, %3
  %16 = load i64, ptr %6, align 8, !tbaa !15
  %17 = call i32 @_PyArg_CheckPositional(ptr noundef @.str.28, i64 noundef %16, i64 noundef 2, i64 noundef 2)
  %18 = icmp ne i32 %17, 0
  br i1 %18, label %20, label %19

19:                                               ; preds = %15
  br label %31

20:                                               ; preds = %15, %12
  %21 = load ptr, ptr %5, align 8, !tbaa !28
  %22 = getelementptr ptr, ptr %21, i64 0
  %23 = load ptr, ptr %22, align 8, !tbaa !4
  store ptr %23, ptr %8, align 8, !tbaa !4
  %24 = load ptr, ptr %5, align 8, !tbaa !28
  %25 = getelementptr ptr, ptr %24, i64 1
  %26 = load ptr, ptr %25, align 8, !tbaa !4
  store ptr %26, ptr %9, align 8, !tbaa !4
  %27 = load ptr, ptr %4, align 8, !tbaa !4
  %28 = load ptr, ptr %8, align 8, !tbaa !4
  %29 = load ptr, ptr %9, align 8, !tbaa !4
  %30 = call ptr @typevar_typing_prepare_subst_impl(ptr noundef %27, ptr noundef %28, ptr noundef %29)
  store ptr %30, ptr %7, align 8, !tbaa !4
  br label %31

31:                                               ; preds = %20, %19
  %32 = load ptr, ptr %7, align 8, !tbaa !4
  call void @llvm.lifetime.end.p0(i64 8, ptr %9) #6
  call void @llvm.lifetime.end.p0(i64 8, ptr %8) #6
  call void @llvm.lifetime.end.p0(i64 8, ptr %7) #6
  ret ptr %32
}