; Function Attrs: nounwind uwtable
define internal ptr @typevar_typing_prepare_subst(ptr noundef %0, ptr noundef readonly captures(none) %1, i64 noundef %2) #0 {
  %or.cond = icmp eq i64 %2, 2
  br i1 %or.cond, label %6, label %4

4:                                                ; preds = %3
  %5 = tail call i32 @_PyArg_CheckPositional(ptr noundef nonnull @.str.28, i64 noundef %2, i64 noundef 2, i64 noundef 2) #8
  %.not = icmp eq i32 %5, 0
  br i1 %.not, label %typevar_typing_prepare_subst_impl.exit, label %6

6:                                                ; preds = %3, %4
  %7 = load ptr, ptr %1, align 8, !tbaa !16
  %8 = getelementptr i8, ptr %1, i64 8
  %9 = load ptr, ptr %8, align 8, !tbaa !16
  %10 = tail call ptr @PyObject_GetAttrString(ptr noundef %7, ptr noundef nonnull @.str.33) #8
  %11 = icmp eq ptr %10, null
  br i1 %11, label %typevar_typing_prepare_subst_impl.exit, label %12

12:                                               ; preds = %6
  %13 = tail call i64 @PySequence_Index(ptr noundef nonnull %10, ptr noundef %0) #8
  %14 = icmp eq i64 %13, -1
  br i1 %14, label %15, label %21

15:                                               ; preds = %12
  %16 = load i32, ptr %10, align 8, !tbaa !27
  %.not.i54.i = icmp sgt i32 %16, -1
  br i1 %.not.i54.i, label %17, label %typevar_typing_prepare_subst_impl.exit

17:                                               ; preds = %15
  %18 = add nsw i32 %16, -1
  store i32 %18, ptr %10, align 8, !tbaa !27
  %19 = icmp eq i32 %18, 0
  br i1 %19, label %20, label %typevar_typing_prepare_subst_impl.exit

20:                                               ; preds = %17
  tail call void @_Py_Dealloc(ptr noundef nonnull %10) #8
  br label %typevar_typing_prepare_subst_impl.exit

21:                                               ; preds = %12
  %22 = tail call i64 @PySequence_Size(ptr noundef %9) #8
  %23 = icmp eq i64 %22, -1
  br i1 %23, label %24, label %30

24:                                               ; preds = %21
  %25 = load i32, ptr %10, align 8, !tbaa !27
  %.not.i52.i = icmp sgt i32 %25, -1
  br i1 %.not.i52.i, label %26, label %typevar_typing_prepare_subst_impl.exit

26:                                               ; preds = %24
  %27 = add nsw i32 %25, -1
  store i32 %27, ptr %10, align 8, !tbaa !27
  %28 = icmp eq i32 %27, 0
  br i1 %28, label %29, label %typevar_typing_prepare_subst_impl.exit

29:                                               ; preds = %26
  tail call void @_Py_Dealloc(ptr noundef nonnull %10) #8
  br label %typevar_typing_prepare_subst_impl.exit

30:                                               ; preds = %21
  %31 = icmp slt i64 %13, %22
  br i1 %31, label %32, label %42

32:                                               ; preds = %30
  %33 = load i32, ptr %10, align 8, !tbaa !27
  %.not.i50.i = icmp sgt i32 %33, -1
  br i1 %.not.i50.i, label %34, label %Py_DECREF.exit51.i

34:                                               ; preds = %32
  %35 = add nsw i32 %33, -1
  store i32 %35, ptr %10, align 8, !tbaa !27
  %36 = icmp eq i32 %35, 0
  br i1 %36, label %37, label %Py_DECREF.exit51.i

37:                                               ; preds = %34
  tail call void @_Py_Dealloc(ptr noundef nonnull %10) #8
  br label %Py_DECREF.exit51.i

Py_DECREF.exit51.i:                               ; preds = %37, %34, %32
  %38 = load i32, ptr %9, align 8, !tbaa !27
  %39 = icmp slt i32 %38, 0
  br i1 %39, label %typevar_typing_prepare_subst_impl.exit, label %40

40:                                               ; preds = %Py_DECREF.exit51.i
  %41 = add nuw i32 %38, 1
  store i32 %41, ptr %9, align 8, !tbaa !27
  br label %typevar_typing_prepare_subst_impl.exit

42:                                               ; preds = %30
  %43 = icmp eq i64 %13, %22
  br i1 %43, label %44, label %Py_DECREF.exit49.i

44:                                               ; preds = %42
  %45 = getelementptr inbounds nuw i8, ptr %0, i64 56
  %46 = load ptr, ptr %45, align 8, !tbaa !138
  %.not.i64.i = icmp eq ptr %46, null
  br i1 %.not.i64.i, label %52, label %47

47:                                               ; preds = %44
  %48 = load i32, ptr %46, align 8, !tbaa !27
  %49 = icmp slt i32 %48, 0
  br i1 %49, label %typevar_default.exit.thread.i, label %50

50:                                               ; preds = %47
  %51 = add nuw i32 %48, 1
  store i32 %51, ptr %46, align 8, !tbaa !27
  br label %typevar_default.exit.thread.i

52:                                               ; preds = %44
  %53 = getelementptr inbounds nuw i8, ptr %0, i64 64
  %54 = load ptr, ptr %53, align 8, !tbaa !139
  %55 = icmp eq ptr %54, null
  br i1 %55, label %Py_DECREF.exit49.i, label %56

56:                                               ; preds = %52
  %57 = tail call ptr @PyObject_CallNoArgs(ptr noundef nonnull %54) #8
  %.not.i.i.i.i = icmp eq ptr %57, null
  br i1 %.not.i.i.i.i, label %63, label %58

58:                                               ; preds = %56
  %59 = load i32, ptr %57, align 8, !tbaa !27
  %60 = icmp slt i32 %59, 0
  br i1 %60, label %typevar_default.exit.thread68.i, label %61

61:                                               ; preds = %58
  %62 = add nuw i32 %59, 1
  store i32 %62, ptr %57, align 8, !tbaa !27
  br label %typevar_default.exit.thread68.i

typevar_default.exit.thread68.i:                  ; preds = %61, %58
  store ptr %57, ptr %45, align 8, !tbaa !138
  br label %typevar_default.exit.thread.i

63:                                               ; preds = %56
  store ptr null, ptr %45, align 8, !tbaa !138
  %64 = load i32, ptr %10, align 8, !tbaa !27
  %.not.i48.i = icmp sgt i32 %64, -1
  br i1 %.not.i48.i, label %65, label %typevar_typing_prepare_subst_impl.exit

65:                                               ; preds = %63
  %66 = add nsw i32 %64, -1
  store i32 %66, ptr %10, align 8, !tbaa !27
  %67 = icmp eq i32 %66, 0
  br i1 %67, label %68, label %typevar_typing_prepare_subst_impl.exit

68:                                               ; preds = %65
  tail call void @_Py_Dealloc(ptr noundef nonnull %10) #8
  br label %typevar_typing_prepare_subst_impl.exit

typevar_default.exit.thread.i:                    ; preds = %typevar_default.exit.thread68.i, %50, %47
  %.0.i66.i = phi ptr [ %57, %typevar_default.exit.thread68.i ], [ %46, %50 ], [ %46, %47 ]
  %.not.i = icmp eq ptr %.0.i66.i, @_Py_NoDefaultStruct
  br i1 %.not.i, label %Py_DECREF.exit49.i, label %69

69:                                               ; preds = %typevar_default.exit.thread.i
  %70 = tail call ptr (i64, ...) @PyTuple_Pack(i64 noundef 1, ptr noundef nonnull %.0.i66.i) #8
  %71 = load i32, ptr %.0.i66.i, align 8, !tbaa !27
  %.not.i46.i = icmp sgt i32 %71, -1
  br i1 %.not.i46.i, label %72, label %Py_DECREF.exit47.i

72:                                               ; preds = %69
  %73 = add nsw i32 %71, -1
  store i32 %73, ptr %.0.i66.i, align 8, !tbaa !27
  %74 = icmp eq i32 %73, 0
  br i1 %74, label %75, label %Py_DECREF.exit47.i

75:                                               ; preds = %72
  tail call void @_Py_Dealloc(ptr noundef nonnull %.0.i66.i) #8
  br label %Py_DECREF.exit47.i

Py_DECREF.exit47.i:                               ; preds = %75, %72, %69
  %76 = icmp eq ptr %70, null
  br i1 %76, label %77, label %83

77:                                               ; preds = %Py_DECREF.exit47.i
  %78 = load i32, ptr %10, align 8, !tbaa !27
  %.not.i44.i = icmp sgt i32 %78, -1
  br i1 %.not.i44.i, label %79, label %typevar_typing_prepare_subst_impl.exit

79:                                               ; preds = %77
  %80 = add nsw i32 %78, -1
  store i32 %80, ptr %10, align 8, !tbaa !27
  %81 = icmp eq i32 %80, 0
  br i1 %81, label %82, label %typevar_typing_prepare_subst_impl.exit

82:                                               ; preds = %79
  tail call void @_Py_Dealloc(ptr noundef nonnull %10) #8
  br label %typevar_typing_prepare_subst_impl.exit

83:                                               ; preds = %Py_DECREF.exit47.i
  %84 = tail call ptr @PySequence_Concat(ptr noundef %9, ptr noundef nonnull %70) #8
  %85 = load i32, ptr %10, align 8, !tbaa !27
  %.not.i42.i = icmp sgt i32 %85, -1
  br i1 %.not.i42.i, label %86, label %Py_DECREF.exit43.i

86:                                               ; preds = %83
  %87 = add nsw i32 %85, -1
  store i32 %87, ptr %10, align 8, !tbaa !27
  %88 = icmp eq i32 %87, 0
  br i1 %88, label %89, label %Py_DECREF.exit43.i

89:                                               ; preds = %86
  tail call void @_Py_Dealloc(ptr noundef nonnull %10) #8
  br label %Py_DECREF.exit43.i

Py_DECREF.exit43.i:                               ; preds = %89, %86, %83
  %90 = load i32, ptr %70, align 8, !tbaa !27
  %.not.i40.i = icmp sgt i32 %90, -1
  br i1 %.not.i40.i, label %91, label %typevar_typing_prepare_subst_impl.exit

91:                                               ; preds = %Py_DECREF.exit43.i
  %92 = add nsw i32 %90, -1
  store i32 %92, ptr %70, align 8, !tbaa !27
  %93 = icmp eq i32 %92, 0
  br i1 %93, label %94, label %typevar_typing_prepare_subst_impl.exit

94:                                               ; preds = %91
  tail call void @_Py_Dealloc(ptr noundef nonnull %70) #8
  br label %typevar_typing_prepare_subst_impl.exit

Py_DECREF.exit49.i:                               ; preds = %typevar_default.exit.thread.i, %52, %42
  %95 = load i32, ptr %10, align 8, !tbaa !27
  %.not.i.i = icmp sgt i32 %95, -1
  br i1 %.not.i.i, label %96, label %Py_DECREF.exit.i

96:                                               ; preds = %Py_DECREF.exit49.i
  %97 = add nsw i32 %95, -1
  store i32 %97, ptr %10, align 8, !tbaa !27
  %98 = icmp eq i32 %97, 0
  br i1 %98, label %99, label %Py_DECREF.exit.i

99:                                               ; preds = %96
  tail call void @_Py_Dealloc(ptr noundef nonnull %10) #8
  br label %Py_DECREF.exit.i

Py_DECREF.exit.i:                                 ; preds = %99, %96, %Py_DECREF.exit49.i
  %100 = load ptr, ptr @PyExc_TypeError, align 8, !tbaa !16
  %101 = add nuw i64 %13, 1
  %102 = tail call ptr (ptr, ptr, ...) @PyErr_Format(ptr noundef %100, ptr noundef nonnull @.str.34, ptr noundef %7, i64 noundef %22, i64 noundef %101) #8
  br label %typevar_typing_prepare_subst_impl.exit

typevar_typing_prepare_subst_impl.exit:           ; preds = %Py_DECREF.exit.i, %94, %91, %Py_DECREF.exit43.i, %82, %79, %77, %68, %65, %63, %40, %Py_DECREF.exit51.i, %29, %26, %24, %20, %17, %15, %6, %4
  %.0 = phi ptr [ null, %4 ], [ null, %6 ], [ null, %Py_DECREF.exit.i ], [ null, %15 ], [ null, %17 ], [ null, %20 ], [ null, %24 ], [ null, %26 ], [ null, %29 ], [ %9, %Py_DECREF.exit51.i ], [ %9, %40 ], [ %84, %94 ], [ %84, %91 ], [ %84, %Py_DECREF.exit43.i ], [ null, %82 ], [ null, %79 ], [ null, %77 ], [ null, %68 ], [ null, %65 ], [ null, %63 ]
  ret ptr %.0
}